; Function Attrs: mustprogress nofree norecurse nosync nounwind willreturn memory(write, argmem: readwrite, inaccessiblemem: none) uwtable
define dso_local void @_ZN4node10HandleWrap19MarkAsUninitializedEv(ptr noundef nonnull align 8 dereferenceable(88) %this) local_unnamed_addr #5 align 2 {
entry:
  %handle_wrap_queue_ = getelementptr inbounds i8, ptr %this, i64 64
  %next_.i = getelementptr inbounds i8, ptr %this, i64 72
  %0 = load ptr, ptr %next_.i, align 8
  %1 = load ptr, ptr %handle_wrap_queue_, align 8
  %next_2.i = getelementptr inbounds i8, ptr %1, i64 8
  store ptr %0, ptr %next_2.i, align 8
  %2 = load ptr, ptr %handle_wrap_queue_, align 8
  store ptr %2, ptr %0, align 8
  store ptr %handle_wrap_queue_, ptr %handle_wrap_queue_, align 8
  store ptr %handle_wrap_queue_, ptr %next_.i, align 8
  %state_ = getelementptr inbounds i8, ptr %this, i64 56
  store i32 2, ptr %state_, align 8
  ret void
}